target datalayout = "e-m:e-p270:32:32-p271:32:32-p272:64:64-i64:64-i128:128-f80:128-n8:16:32:64-S128"
target triple = "x86_64-pc-linux-gnu"

%"class.duckdb_apache::thrift::TBase" = type { ptr }
%"class.duckdb_parquet::IntType" = type <{ %"class.duckdb_apache::thrift::TBase", i8, i8, [6 x i8] }>

; Function Attrs: mustprogress nounwind uwtable
define void @_ZN14duckdb_parquet7IntTypeC2Ev(ptr noundef nonnull align 8 dereferenceable(10) %0, ptr noundef %1) unnamed_addr #1 align 2 {
  %3 = alloca ptr, align 8
  %4 = alloca ptr, align 8
  store ptr %0, ptr %3, align 8, !tbaa !197
  store ptr %1, ptr %4, align 8, !tbaa !24
  %5 = load ptr, ptr %3, align 8
  %6 = load ptr, ptr %4, align 8
  %7 = load ptr, ptr %6, align 8
  store ptr %7, ptr %5, align 8, !tbaa !36
  %8 = getelementptr inbounds ptr, ptr %6, i64 1
  %9 = load ptr, ptr %8, align 8
  %10 = load ptr, ptr %5, align 8, !tbaa !36
  %11 = getelementptr i8, ptr %10, i64 -48
  %12 = load i64, ptr %11, align 8
  %13 = getelementptr inbounds i8, ptr %5, i64 %12
  store ptr %9, ptr %13, align 8, !tbaa !36
  %14 = getelementptr inbounds nuw %"class.duckdb_parquet::IntType", ptr %5, i32 0, i32 1
  store i8 0, ptr %14, align 8, !tbaa !199
  %15 = getelementptr inbounds nuw %"class.duckdb_parquet::IntType", ptr %5, i32 0, i32 2
  store i8 0, ptr %15, align 1, !tbaa !201
  ret void
}